; Function Attrs: nounwind uwtable
define internal void @recff_math_round(ptr noundef %0, ptr noundef readonly captures(none) %1) #0 {
  %3 = getelementptr inbounds nuw i8, ptr %0, i64 160
  %4 = load ptr, ptr %3, align 8, !tbaa !37
  %5 = load i32, ptr %4, align 4, !tbaa !39
  %6 = lshr i32 %5, 24
  %7 = and i32 %6, 31
  %8 = add nsw i32 %7, -15
  %9 = icmp ult i32 %8, 5
  br i1 %9, label %21, label %10

10:                                               ; preds = %2
  %11 = tail call i32 @lj_ir_tonum(ptr noundef nonnull %0, i32 noundef %5) #9
  %12 = trunc i32 %11 to i16
  %13 = getelementptr inbounds nuw i8, ptr %1, i64 16
  %14 = load i32, ptr %13, align 8, !tbaa !29
  %15 = trunc i32 %14 to i16
  %16 = getelementptr inbounds nuw i8, ptr %0, i64 184
  %17 = getelementptr inbounds nuw i8, ptr %0, i64 188
  store i16 13326, ptr %17, align 4, !tbaa !4
  store i16 %12, ptr %16, align 8, !tbaa !4
  %18 = getelementptr inbounds nuw i8, ptr %0, i64 186
  store i16 %15, ptr %18, align 2, !tbaa !4
  %19 = tail call i32 @lj_opt_fold(ptr noundef nonnull %0) #9
  %20 = load ptr, ptr %3, align 8, !tbaa !37
  store i32 %19, ptr %20, align 4, !tbaa !39
  br label %21

21:                                               ; preds = %10, %2
  ret void
}